; Function Attrs: nofree norecurse nosync nounwind memory(argmem: readwrite) uwtable
define internal void @_blend_overlay(ptr noundef readonly captures(none) %0, ptr noundef readonly captures(none) %1, ptr noundef writeonly captures(none) %2, ptr noalias noundef readonly captures(none) %3, i64 noundef %4, ptr noundef readonly captures(none) %5, ptr noundef readonly captures(none) %6) unnamed_addr #11 {
  %8 = alloca [4 x float], align 16
  %9 = alloca [4 x float], align 16
  %.not = icmp eq i64 %4, 0
  br i1 %.not, label %._crit_edge, label %.lr.ph

.lr.ph:                                           ; preds = %7
  %10 = getelementptr inbounds nuw i8, ptr %8, i64 4
  %11 = getelementptr inbounds nuw i8, ptr %9, i64 4
  %12 = getelementptr inbounds nuw i8, ptr %5, i64 4
  %13 = getelementptr inbounds nuw i8, ptr %6, i64 4
  %14 = getelementptr inbounds nuw i8, ptr %8, i64 8
  %15 = getelementptr inbounds nuw i8, ptr %9, i64 8
  %16 = getelementptr inbounds nuw i8, ptr %5, i64 8
  %17 = getelementptr inbounds nuw i8, ptr %6, i64 8
  br label %18

._crit_edge:                                      ; preds = %_blend_Lab_rescale.exit, %7
  ret void

18:                                               ; preds = %.lr.ph, %_blend_Lab_rescale.exit
  %.060 = phi i64 [ 0, %.lr.ph ], [ %109, %_blend_Lab_rescale.exit ]
  %.05159 = phi i64 [ 0, %.lr.ph ], [ %110, %_blend_Lab_rescale.exit ]
  %19 = getelementptr inbounds nuw float, ptr %3, i64 %.060
  %20 = load float, ptr %19, align 4, !tbaa !36
  call void @llvm.lifetime.start.p0(i64 16, ptr nonnull %8) #8
  call void @llvm.lifetime.start.p0(i64 16, ptr nonnull %9) #8
  %21 = getelementptr inbounds nuw float, ptr %0, i64 %.05159
  br label %22

22:                                               ; preds = %22, %18
  %.06.i = phi i64 [ 0, %18 ], [ %29, %22 ]
  %23 = getelementptr inbounds nuw float, ptr %21, i64 %.06.i
  %24 = load float, ptr %23, align 4, !tbaa !36
  %25 = getelementptr inbounds nuw [4 x float], ptr @__const._blend_Lab_scale.scale, i64 0, i64 %.06.i
  %26 = load float, ptr %25, align 4, !tbaa !36
  %27 = fmul reassoc nsz arcp contract afn float %26, %24
  %28 = getelementptr inbounds nuw float, ptr %8, i64 %.06.i
  store float %27, ptr %28, align 4, !tbaa !36
  %29 = add nuw nsw i64 %.06.i, 1
  %exitcond.not.i = icmp eq i64 %29, 4
  br i1 %exitcond.not.i, label %_blend_Lab_scale.exit, label %22

_blend_Lab_scale.exit:                            ; preds = %22
  %30 = getelementptr inbounds nuw float, ptr %1, i64 %.05159
  br label %31

31:                                               ; preds = %31, %_blend_Lab_scale.exit
  %.06.i54 = phi i64 [ 0, %_blend_Lab_scale.exit ], [ %38, %31 ]
  %32 = getelementptr inbounds nuw float, ptr %30, i64 %.06.i54
  %33 = load float, ptr %32, align 4, !tbaa !36
  %34 = getelementptr inbounds nuw [4 x float], ptr @__const._blend_Lab_scale.scale, i64 0, i64 %.06.i54
  %35 = load float, ptr %34, align 4, !tbaa !36
  %36 = fmul reassoc nsz arcp contract afn float %35, %33
  %37 = getelementptr inbounds nuw float, ptr %9, i64 %.06.i54
  store float %36, ptr %37, align 4, !tbaa !36
  %38 = add nuw nsw i64 %.06.i54, 1
  %exitcond.not.i55 = icmp eq i64 %38, 4
  br i1 %exitcond.not.i55, label %_blend_Lab_scale.exit56, label %31

_blend_Lab_scale.exit56:                          ; preds = %31
  %39 = fmul reassoc nsz arcp contract afn float %20, %20
  %40 = load float, ptr %6, align 4, !tbaa !36
  %41 = load float, ptr %5, align 4, !tbaa !36
  %42 = tail call reassoc nsz arcp contract afn float @llvm.fabs.f32(float %41)
  %43 = fadd reassoc nsz arcp contract afn float %42, %40
  %44 = load float, ptr %8, align 16, !tbaa !36
  %45 = fadd reassoc nsz arcp contract afn float %44, %42
  %46 = tail call reassoc nsz arcp contract afn float @llvm.maxnum.f32(float %45, float 0.000000e+00)
  %47 = tail call reassoc nsz arcp contract afn noundef float @llvm.minnum.f32(float %46, float %43)
  %48 = load float, ptr %9, align 16, !tbaa !36
  %49 = fadd reassoc nsz arcp contract afn float %48, %42
  %50 = tail call reassoc nsz arcp contract afn float @llvm.maxnum.f32(float %49, float 0.000000e+00)
  %51 = tail call reassoc nsz arcp contract afn noundef float @llvm.minnum.f32(float %50, float %43)
  %52 = fmul reassoc nsz arcp contract afn float %43, 5.000000e-01
  %53 = fmul reassoc nsz arcp contract afn float %43, 2.000000e+00
  %54 = fsub reassoc nsz arcp contract afn float 1.000000e+00, %39
  %55 = fmul reassoc nsz arcp contract afn float %47, %54
  %56 = fcmp reassoc nsz arcp contract afn ogt float %47, %52
  br i1 %56, label %57, label %64

57:                                               ; preds = %_blend_Lab_scale.exit56
  %58 = fsub reassoc nsz arcp contract afn float %47, %52
  %59 = fmul reassoc nsz arcp contract afn float %58, %53
  %60 = fsub reassoc nsz arcp contract afn float %43, %59
  %61 = fsub reassoc nsz arcp contract afn float %43, %51
  %62 = fmul reassoc nsz arcp contract afn float %60, %61
  %63 = fsub reassoc nsz arcp contract afn float %43, %62
  br label %67

64:                                               ; preds = %_blend_Lab_scale.exit56
  %65 = fmul reassoc nsz arcp contract afn float %47, %53
  %66 = fmul reassoc nsz arcp contract afn float %65, %51
  br label %67

67:                                               ; preds = %64, %57
  %68 = phi reassoc nsz arcp contract afn float [ %63, %57 ], [ %66, %64 ]
  %69 = fmul reassoc nsz arcp contract afn float %68, %39
  %70 = fadd reassoc nsz arcp contract afn float %69, %55
  %71 = tail call reassoc nsz arcp contract afn float @llvm.maxnum.f32(float %70, float 0.000000e+00)
  %72 = tail call reassoc nsz arcp contract afn noundef float @llvm.minnum.f32(float %71, float %43)
  %73 = fsub reassoc nsz arcp contract afn float %72, %42
  store float %73, ptr %9, align 16, !tbaa !36
  %74 = tail call reassoc nsz arcp contract afn float @llvm.maxnum.f32(float %44, float 0x3F847AE140000000)
  %75 = load float, ptr %10, align 4, !tbaa !36
  %76 = fmul reassoc nsz arcp contract afn float %75, %54
  %77 = load float, ptr %11, align 4, !tbaa !36
  %78 = fadd reassoc nsz arcp contract afn float %77, %75
  %79 = fmul reassoc nsz arcp contract afn float %73, %39
  %80 = fmul reassoc nsz arcp contract afn float %79, %78
  %81 = fdiv reassoc nsz arcp contract afn float %80, %74
  %82 = fadd reassoc nsz arcp contract afn float %81, %76
  %83 = load float, ptr %12, align 4, !tbaa !36
  %84 = load float, ptr %13, align 4, !tbaa !36
  %85 = tail call reassoc nsz arcp contract afn float @llvm.maxnum.f32(float %82, float %83)
  %86 = tail call reassoc nsz arcp contract afn noundef float @llvm.minnum.f32(float %85, float %84)
  store float %86, ptr %11, align 4, !tbaa !36
  %87 = load float, ptr %14, align 8, !tbaa !36
  %88 = fmul reassoc nsz arcp contract afn float %87, %54
  %89 = load float, ptr %15, align 8, !tbaa !36
  %90 = fadd reassoc nsz arcp contract afn float %89, %87
  %91 = fmul reassoc nsz arcp contract afn float %79, %90
  %92 = fdiv reassoc nsz arcp contract afn float %91, %74
  %93 = fadd reassoc nsz arcp contract afn float %92, %88
  %94 = load float, ptr %16, align 4, !tbaa !36
  %95 = load float, ptr %17, align 4, !tbaa !36
  %96 = tail call reassoc nsz arcp contract afn float @llvm.maxnum.f32(float %93, float %94)
  %97 = tail call reassoc nsz arcp contract afn noundef float @llvm.minnum.f32(float %96, float %95)
  store float %97, ptr %15, align 8, !tbaa !36
  %98 = getelementptr inbounds nuw float, ptr %2, i64 %.05159
  br label %99

99:                                               ; preds = %99, %67
  %.06.i57 = phi i64 [ 0, %67 ], [ %106, %99 ]
  %100 = getelementptr inbounds nuw float, ptr %9, i64 %.06.i57
  %101 = load float, ptr %100, align 4, !tbaa !36
  %102 = getelementptr inbounds nuw [4 x float], ptr @__const._blend_Lab_rescale.scale, i64 0, i64 %.06.i57
  %103 = load float, ptr %102, align 4, !tbaa !36
  %104 = fmul reassoc nsz arcp contract afn float %103, %101
  %105 = getelementptr inbounds nuw float, ptr %98, i64 %.06.i57
  store float %104, ptr %105, align 4, !tbaa !36
  %106 = add nuw nsw i64 %.06.i57, 1
  %exitcond.not.i58 = icmp eq i64 %106, 4
  br i1 %exitcond.not.i58, label %_blend_Lab_rescale.exit, label %99

_blend_Lab_rescale.exit:                          ; preds = %99
  %107 = or disjoint i64 %.05159, 3
  %108 = getelementptr inbounds nuw float, ptr %2, i64 %107
  store float %20, ptr %108, align 4, !tbaa !36
  call void @llvm.lifetime.end.p0(i64 16, ptr nonnull %9) #8
  call void @llvm.lifetime.end.p0(i64 16, ptr nonnull %8) #8
  %109 = add nuw i64 %.060, 1
  %110 = add i64 %.05159, 4
  %exitcond.not = icmp eq i64 %109, %4
  br i1 %exitcond.not, label %._crit_edge, label %18
}